; Function Attrs: mustprogress uwtable
define hidden void @_ZN6google8protobuf10TextFormat7Printer24SetUseUtf8StringEscapingEb(ptr noundef nonnull align 8 captures(none) dereferenceable(136) %0, i1 noundef zeroext %1) local_unnamed_addr #3 align 2 personality ptr @__gxx_personality_v0 {
  %3 = tail call noalias noundef nonnull dereferenceable(8) ptr @_Znwm(i64 noundef 8) #32
  %. = select i1 %1, ptr getelementptr inbounds nuw inrange(-16, 136) (i8, ptr @_ZTVN6google8protobuf10TextFormat7Printer33FastFieldValuePrinterUtf8EscapingE, i64 16), ptr getelementptr inbounds nuw inrange(-16, 136) (i8, ptr @_ZTVN6google8protobuf10TextFormat7Printer28DebugStringFieldValuePrinterE, i64 16)
  store ptr %., ptr %3, align 8, !tbaa !24
  %4 = getelementptr inbounds nuw i8, ptr %0, i64 24
  %5 = load ptr, ptr %4, align 8, !tbaa !22
  store ptr %3, ptr %4, align 8, !tbaa !22
  %.not.i.i.i = icmp eq ptr %5, null
  br i1 %.not.i.i.i, label %_ZN6google8protobuf10TextFormat7Printer27SetDefaultFieldValuePrinterEPKNS1_21FastFieldValuePrinterE.exit, label %_ZNKSt14default_deleteIKN6google8protobuf10TextFormat21FastFieldValuePrinterEEclEPS4_.exit.i.i.i

_ZNKSt14default_deleteIKN6google8protobuf10TextFormat21FastFieldValuePrinterEEclEPS4_.exit.i.i.i: ; preds = %2
  %6 = load ptr, ptr %5, align 8, !tbaa !24
  %7 = getelementptr inbounds nuw i8, ptr %6, i64 8
  %8 = load ptr, ptr %7, align 8
  tail call void %8(ptr noundef nonnull align 8 dereferenceable(8) %5) #31
  br label %_ZN6google8protobuf10TextFormat7Printer27SetDefaultFieldValuePrinterEPKNS1_21FastFieldValuePrinterE.exit

_ZN6google8protobuf10TextFormat7Printer27SetDefaultFieldValuePrinterEPKNS1_21FastFieldValuePrinterE.exit: ; preds = %2, %_ZNKSt14default_deleteIKN6google8protobuf10TextFormat21FastFieldValuePrinterEEclEPS4_.exit.i.i.i
  ret void
}